; Function Attrs: inlinehint nounwind uwtable
define internal fastcc void @Cec_ManPatStoreNum(ptr noundef readonly captures(none) %0, i32 noundef %1) unnamed_addr #4 {
  %.not13 = icmp ult i32 %1, 128
  br i1 %.not13, label %._crit_edge, label %.lr.ph

.lr.ph:                                           ; preds = %2
  %3 = getelementptr inbounds nuw i8, ptr %0, i64 16
  br label %4

4:                                                ; preds = %.lr.ph, %Vec_StrPush.exit
  %.014 = phi i32 [ %1, %.lr.ph ], [ %38, %Vec_StrPush.exit ]
  %5 = load ptr, ptr %3, align 8, !tbaa !70
  %6 = trunc i32 %.014 to i8
  %7 = or i8 %6, -128
  %8 = getelementptr inbounds nuw i8, ptr %5, i64 4
  %9 = load i32, ptr %8, align 4, !tbaa !71
  %10 = load i32, ptr %5, align 8, !tbaa !86
  %11 = icmp eq i32 %9, %10
  br i1 %11, label %12, label %.Vec_StrGrow.exit10_crit_edge.i

.Vec_StrGrow.exit10_crit_edge.i:                  ; preds = %4
  %.phi.trans.insert.i = getelementptr inbounds nuw i8, ptr %5, i64 8
  %.pre.i = load ptr, ptr %.phi.trans.insert.i, align 8, !tbaa !73
  br label %Vec_StrPush.exit

12:                                               ; preds = %4
  %13 = icmp slt i32 %9, 16
  br i1 %13, label %14, label %22

14:                                               ; preds = %12
  %15 = getelementptr inbounds nuw i8, ptr %5, i64 8
  %16 = load ptr, ptr %15, align 8, !tbaa !73
  %.not9.i.i = icmp eq ptr %16, null
  br i1 %.not9.i.i, label %19, label %17

17:                                               ; preds = %14
  %18 = tail call dereferenceable_or_null(16) ptr @realloc(ptr noundef nonnull %16, i64 noundef 16) #19
  br label %Vec_StrGrow.exit.i

19:                                               ; preds = %14
  %20 = tail call noalias dereferenceable_or_null(16) ptr @malloc(i64 noundef 16) #20
  br label %Vec_StrGrow.exit.i

Vec_StrGrow.exit.i:                               ; preds = %19, %17
  %21 = phi ptr [ %18, %17 ], [ %20, %19 ]
  store ptr %21, ptr %15, align 8, !tbaa !73
  store i32 16, ptr %5, align 8, !tbaa !86
  br label %Vec_StrPush.exit

22:                                               ; preds = %12
  %23 = shl nuw nsw i32 %9, 1
  %24 = getelementptr inbounds nuw i8, ptr %5, i64 8
  %25 = load ptr, ptr %24, align 8, !tbaa !73
  %.not9.i9.i = icmp eq ptr %25, null
  %26 = zext nneg i32 %23 to i64
  br i1 %.not9.i9.i, label %29, label %27

27:                                               ; preds = %22
  %28 = tail call ptr @realloc(ptr noundef nonnull %25, i64 noundef %26) #19
  br label %31

29:                                               ; preds = %22
  %30 = tail call noalias ptr @malloc(i64 noundef %26) #20
  br label %31

31:                                               ; preds = %29, %27
  %32 = phi ptr [ %28, %27 ], [ %30, %29 ]
  store ptr %32, ptr %24, align 8, !tbaa !73
  store i32 %23, ptr %5, align 8, !tbaa !86
  br label %Vec_StrPush.exit

Vec_StrPush.exit:                                 ; preds = %.Vec_StrGrow.exit10_crit_edge.i, %Vec_StrGrow.exit.i, %31
  %33 = phi ptr [ %.pre.i, %.Vec_StrGrow.exit10_crit_edge.i ], [ %32, %31 ], [ %21, %Vec_StrGrow.exit.i ]
  %34 = load i32, ptr %8, align 4, !tbaa !71
  %35 = add nsw i32 %34, 1
  store i32 %35, ptr %8, align 4, !tbaa !71
  %36 = sext i32 %34 to i64
  %37 = getelementptr inbounds i8, ptr %33, i64 %36
  store i8 %7, ptr %37, align 1, !tbaa !74
  %38 = lshr i32 %.014, 7
  %.not = icmp ult i32 %.014, 16384
  br i1 %.not, label %._crit_edge, label %4, !llvm.loop !87

._crit_edge:                                      ; preds = %Vec_StrPush.exit, %2
  %.0.lcssa = phi i32 [ %1, %2 ], [ %38, %Vec_StrPush.exit ]
  %39 = getelementptr inbounds nuw i8, ptr %0, i64 16
  %40 = load ptr, ptr %39, align 8, !tbaa !70
  %41 = getelementptr inbounds nuw i8, ptr %40, i64 4
  %42 = load i32, ptr %41, align 4, !tbaa !71
  %43 = load i32, ptr %40, align 8, !tbaa !86
  %44 = icmp eq i32 %42, %43
  br i1 %44, label %45, label %.Vec_StrGrow.exit10_crit_edge.i6

.Vec_StrGrow.exit10_crit_edge.i6:                 ; preds = %._crit_edge
  %.phi.trans.insert.i7 = getelementptr inbounds nuw i8, ptr %40, i64 8
  %.pre.i8 = load ptr, ptr %.phi.trans.insert.i7, align 8, !tbaa !73
  br label %Vec_StrPush.exit12

45:                                               ; preds = %._crit_edge
  %46 = icmp slt i32 %42, 16
  br i1 %46, label %47, label %55

47:                                               ; preds = %45
  %48 = getelementptr inbounds nuw i8, ptr %40, i64 8
  %49 = load ptr, ptr %48, align 8, !tbaa !73
  %.not9.i.i10 = icmp eq ptr %49, null
  br i1 %.not9.i.i10, label %52, label %50

50:                                               ; preds = %47
  %51 = tail call dereferenceable_or_null(16) ptr @realloc(ptr noundef nonnull %49, i64 noundef 16) #19
  br label %Vec_StrGrow.exit.i11

52:                                               ; preds = %47
  %53 = tail call noalias dereferenceable_or_null(16) ptr @malloc(i64 noundef 16) #20
  br label %Vec_StrGrow.exit.i11

Vec_StrGrow.exit.i11:                             ; preds = %52, %50
  %54 = phi ptr [ %51, %50 ], [ %53, %52 ]
  store ptr %54, ptr %48, align 8, !tbaa !73
  store i32 16, ptr %40, align 8, !tbaa !86
  br label %Vec_StrPush.exit12

55:                                               ; preds = %45
  %56 = shl nuw nsw i32 %42, 1
  %57 = getelementptr inbounds nuw i8, ptr %40, i64 8
  %58 = load ptr, ptr %57, align 8, !tbaa !73
  %.not9.i9.i9 = icmp eq ptr %58, null
  %59 = zext nneg i32 %56 to i64
  br i1 %.not9.i9.i9, label %62, label %60

60:                                               ; preds = %55
  %61 = tail call ptr @realloc(ptr noundef nonnull %58, i64 noundef %59) #19
  br label %64

62:                                               ; preds = %55
  %63 = tail call noalias ptr @malloc(i64 noundef %59) #20
  br label %64

64:                                               ; preds = %62, %60
  %65 = phi ptr [ %61, %60 ], [ %63, %62 ]
  store ptr %65, ptr %57, align 8, !tbaa !73
  store i32 %56, ptr %40, align 8, !tbaa !86
  br label %Vec_StrPush.exit12

Vec_StrPush.exit12:                               ; preds = %.Vec_StrGrow.exit10_crit_edge.i6, %Vec_StrGrow.exit.i11, %64
  %66 = phi ptr [ %.pre.i8, %.Vec_StrGrow.exit10_crit_edge.i6 ], [ %65, %64 ], [ %54, %Vec_StrGrow.exit.i11 ]
  %67 = trunc nuw i32 %.0.lcssa to i8
  %68 = load i32, ptr %41, align 4, !tbaa !71
  %69 = add nsw i32 %68, 1
  store i32 %69, ptr %41, align 4, !tbaa !71
  %70 = sext i32 %68 to i64
  %71 = getelementptr inbounds i8, ptr %66, i64 %70
  store i8 %67, ptr %71, align 1, !tbaa !74
  ret void
}